target datalayout = "e-m:e-p270:32:32-p271:32:32-p272:64:64-i64:64-i128:128-f80:128-n8:16:32:64-S128"
target triple = "x86_64-pc-linux-gnu"

%class.ShenandoahThreadLocalData = type { i8, i8, i8, [5 x i8], %class.SATBMarkQueue, ptr, i64, double }
%class.SATBMarkQueue = type <{ %class.PtrQueue, i8, [7 x i8] }>
%class.PtrQueue = type { i64, ptr }
%class.ShenandoahAllocRequest = type <{ i64, i64, i64, i32, [4 x i8] }>
%class.PLAB = type { [32 x i8], i64, ptr, ptr, ptr, ptr, i64, i64, i64, [32 x i8] }
%class.Thread = type { %class.ThreadShadow.base, i64, [43 x i64], ptr, ptr, i32, ptr, i64, i64, %class.ThreadLocalAllocBuffer, i64, %class.ThreadHeapSampler, %class.ThreadStatisticalInfo, %class.JfrThreadLocal, ptr, ptr, ptr, ptr, ptr, ptr, i64, i32, i32, ptr, i32, i32, i32, i32, i8, ptr }
%class.ThreadShadow.base = type <{ ptr, ptr, ptr, i32 }>
%class.ThreadLocalAllocBuffer = type <{ ptr, ptr, ptr, ptr, ptr, i64, i64, i64, i64, i32, i32, i32, i32, i64, %class.AdaptiveWeightedAverage, [4 x i8] }>
%class.AdaptiveWeightedAverage = type { float, i32, i32, i8, float }
%class.ThreadHeapSampler = type { i64 }
%class.ThreadStatisticalInfo = type { i64, i64 }
%class.JfrThreadLocal = type <{ ptr, ptr, ptr, ptr, ptr, ptr, ptr, ptr, ptr, ptr, %class.RefCountHandle, i64, i64, i64, i64, i64, i64, i64, i64, i64, i64, i64, i32, i32, i32, i16, i8, i8, i8, i8, i8, [5 x i8] }>
%class.RefCountHandle = type { ptr }

@ZeroTLAB = external global i8, align 1
@_ZN13CollectedHeap22_lab_alignment_reserveE = external global i64, align 8

; Function Attrs: mustprogress nounwind uwtable
define linkonce_odr hidden noundef i64 @_Z13pointer_deltaPVKvS0_m(ptr noundef %0, ptr noundef %1, i64 noundef %2) #1 comdat {
  %4 = alloca ptr, align 8
  %5 = alloca ptr, align 8
  %6 = alloca i64, align 8
  store ptr %0, ptr %4, align 8
  store ptr %1, ptr %5, align 8
  store i64 %2, ptr %6, align 8
  %7 = load ptr, ptr %4, align 8
  %8 = ptrtoint ptr %7 to i64
  %9 = load ptr, ptr %5, align 8
  %10 = ptrtoint ptr %9 to i64
  %11 = sub i64 %8, %10
  %12 = load i64, ptr %6, align 8
  %13 = udiv i64 %11, %12
  ret i64 %13
}

; Function Attrs: mustprogress nounwind uwtable
define linkonce_odr hidden void @_ZN4Copy16pd_fill_to_wordsEPP12HeapWordImplmj(ptr noundef %0, i64 noundef %1, i32 noundef %2) #1 comdat align 2 {
  %4 = alloca ptr, align 8
  %5 = alloca i64, align 8
  %6 = alloca i32, align 4
  %7 = alloca ptr, align 8
  %8 = alloca i64, align 8
  store ptr %0, ptr %4, align 8
  store i64 %1, ptr %5, align 8
  store i32 %2, ptr %6, align 4
  %9 = load ptr, ptr %4, align 8
  store ptr %9, ptr %7, align 8
  %10 = load i32, ptr %6, align 4
  %11 = zext i32 %10 to i64
  %12 = shl i64 %11, 32
  %13 = load i32, ptr %6, align 4
  %14 = zext i32 %13 to i64
  %15 = or i64 %12, %14
  store i64 %15, ptr %8, align 8
  br label %16

16:                                               ; preds = %20, %3
  %17 = load i64, ptr %5, align 8
  %18 = add i64 %17, -1
  store i64 %18, ptr %5, align 8
  %19 = icmp ugt i64 %17, 0
  br i1 %19, label %20, label %24

20:                                               ; preds = %16
  %21 = load i64, ptr %8, align 8
  %22 = load ptr, ptr %7, align 8
  %23 = getelementptr inbounds i64, ptr %22, i32 1
  store ptr %23, ptr %7, align 8
  store i64 %21, ptr %22, align 8
  br label %16, !llvm.loop !33

24:                                               ; preds = %16
  ret void
}

; Function Attrs: mustprogress nounwind uwtable
define linkonce_odr hidden void @_ZN22ShenandoahAllocRequestC2EmmNS_4TypeE(ptr noundef nonnull align 8 dereferenceable(28) %0, i64 noundef %1, i64 noundef %2, i32 noundef %3) unnamed_addr #1 comdat align 2 {
  %5 = alloca ptr, align 8
  %6 = alloca i64, align 8
  %7 = alloca i64, align 8
  %8 = alloca i32, align 4
  store ptr %0, ptr %5, align 8
  store i64 %1, ptr %6, align 8
  store i64 %2, ptr %7, align 8
  store i32 %3, ptr %8, align 4
  %9 = load ptr, ptr %5, align 8
  %10 = getelementptr inbounds %class.ShenandoahAllocRequest, ptr %9, i32 0, i32 0
  %11 = load i64, ptr %6, align 8
  store i64 %11, ptr %10, align 8
  %12 = getelementptr inbounds %class.ShenandoahAllocRequest, ptr %9, i32 0, i32 1
  %13 = load i64, ptr %7, align 8
  store i64 %13, ptr %12, align 8
  %14 = getelementptr inbounds %class.ShenandoahAllocRequest, ptr %9, i32 0, i32 2
  store i64 0, ptr %14, align 8
  %15 = getelementptr inbounds %class.ShenandoahAllocRequest, ptr %9, i32 0, i32 3
  %16 = load i32, ptr %8, align 4
  store i32 %16, ptr %15, align 8
  ret void
}

; Function Attrs: mustprogress nounwind uwtable
define linkonce_odr hidden noundef ptr @_ZN6Thread7gc_dataI25ShenandoahThreadLocalDataEEPT_v(ptr noundef nonnull align 8 dereferenceable(888) %0) #1 comdat align 2 {
  %2 = alloca ptr, align 8
  store ptr %0, ptr %2, align 8
  %3 = load ptr, ptr %2, align 8
  %4 = getelementptr inbounds %class.Thread, ptr %3, i32 0, i32 2
  ret ptr %4
}

; Function Attrs: mustprogress nounwind uwtable
define linkonce_odr hidden noundef i64 @_Z13pointer_deltaPKP12HeapWordImplS2_(ptr noundef %0, ptr noundef %1) #1 comdat {
  %3 = alloca ptr, align 8
  %4 = alloca ptr, align 8
  store ptr %0, ptr %3, align 8
  store ptr %1, ptr %4, align 8
  %5 = load ptr, ptr %3, align 8
  %6 = load ptr, ptr %4, align 8
  %7 = call noundef i64 @_Z13pointer_deltaPVKvS0_m(ptr noundef %5, ptr noundef %6, i64 noundef 8)
  ret i64 %7
}

; Function Attrs: mustprogress nounwind uwtable
define linkonce_odr hidden noundef i64 @_ZN13CollectedHeap21lab_alignment_reserveEv() #1 comdat align 2 {
  %1 = load i64, ptr @_ZN13CollectedHeap22_lab_alignment_reserveE, align 8
  ret i64 %1
}

; Function Attrs: mustprogress nounwind uwtable
define linkonce_odr hidden noundef i64 @_ZN4PLAB7word_szEv(ptr noundef nonnull align 8 dereferenceable(128) %0) #1 comdat align 2 {
  %2 = alloca ptr, align 8
  store ptr %0, ptr %2, align 8
  %3 = load ptr, ptr %2, align 8
  %4 = getelementptr inbounds %class.PLAB, ptr %3, i32 0, i32 1
  %5 = load i64, ptr %4, align 8
  ret i64 %5
}

; Function Attrs: mustprogress nounwind uwtable
define linkonce_odr hidden void @_ZN4Copy16pd_zero_to_wordsEPP12HeapWordImplm(ptr noundef %0, i64 noundef %1) #1 comdat align 2 {
  %3 = alloca ptr, align 8
  %4 = alloca i64, align 8
  store ptr %0, ptr %3, align 8
  store i64 %1, ptr %4, align 8
  %5 = load ptr, ptr %3, align 8
  %6 = load i64, ptr %4, align 8
  call void @_ZN4Copy16pd_fill_to_wordsEPP12HeapWordImplmj(ptr noundef %5, i64 noundef %6, i32 noundef 0)
  ret void
}

; Function Attrs: mustprogress nounwind uwtable
define linkonce_odr hidden void @_ZN4Copy16assert_params_okEPP12HeapWordImpll(ptr noundef %0, i64 noundef %1) #1 comdat align 2 {
  %3 = alloca ptr, align 8
  %4 = alloca i64, align 8
  store ptr %0, ptr %3, align 8
  store i64 %1, ptr %4, align 8
  ret void
}

; Function Attrs: mustprogress nounwind uwtable
define linkonce_odr hidden noundef i64 @_ZN22ShenandoahAllocRequest11actual_sizeEv(ptr noundef nonnull align 8 dereferenceable(28) %0) #1 comdat align 2 {
  %2 = alloca ptr, align 8
  store ptr %0, ptr %2, align 8
  %3 = load ptr, ptr %2, align 8
  %4 = getelementptr inbounds %class.ShenandoahAllocRequest, ptr %3, i32 0, i32 2
  %5 = load i64, ptr %4, align 8
  ret i64 %5
}

; Function Attrs: mustprogress nounwind uwtable
define linkonce_odr hidden void @_ZN22ShenandoahAllocRequest9for_gclabEmm(ptr dead_on_unwind noalias writable sret(%class.ShenandoahAllocRequest) align 8 %0, i64 noundef %1, i64 noundef %2) #1 comdat align 2 {
  %4 = alloca i64, align 8
  %5 = alloca i64, align 8
  store i64 %1, ptr %4, align 8
  store i64 %2, ptr %5, align 8
  %6 = load i64, ptr %4, align 8
  %7 = load i64, ptr %5, align 8
  call void @_ZN22ShenandoahAllocRequestC2EmmNS_4TypeE(ptr noundef nonnull align 8 dereferenceable(28) %0, i64 noundef %6, i64 noundef %7, i32 noundef 3)
  ret void
}

; Function Attrs: mustprogress nounwind uwtable
define linkonce_odr hidden noundef ptr @_ZN25ShenandoahThreadLocalData4dataEP6Thread(ptr noundef %0) #1 comdat align 2 {
  %2 = alloca ptr, align 8
  store ptr %0, ptr %2, align 8
  %3 = load ptr, ptr %2, align 8
  %4 = call noundef ptr @_ZN6Thread7gc_dataI25ShenandoahThreadLocalDataEEPT_v(ptr noundef nonnull align 8 dereferenceable(888) %3)
  ret ptr %4
}

; Function Attrs: mustprogress nounwind uwtable
define linkonce_odr hidden noundef ptr @_ZN4PLAB8allocateEm(ptr noundef nonnull align 8 dereferenceable(128) %0, i64 noundef %1) #1 comdat align 2 {
  %3 = alloca ptr, align 8
  %4 = alloca ptr, align 8
  %5 = alloca i64, align 8
  %6 = alloca ptr, align 8
  store ptr %0, ptr %4, align 8
  store i64 %1, ptr %5, align 8
  %7 = load ptr, ptr %4, align 8
  %8 = getelementptr inbounds %class.PLAB, ptr %7, i32 0, i32 3
  %9 = load ptr, ptr %8, align 8
  store ptr %9, ptr %6, align 8
  %10 = getelementptr inbounds %class.PLAB, ptr %7, i32 0, i32 4
  %11 = load ptr, ptr %10, align 8
  %12 = getelementptr inbounds %class.PLAB, ptr %7, i32 0, i32 3
  %13 = load ptr, ptr %12, align 8
  %14 = call noundef i64 @_Z13pointer_deltaPKP12HeapWordImplS2_(ptr noundef %11, ptr noundef %13)
  %15 = load i64, ptr %5, align 8
  %16 = icmp uge i64 %14, %15
  br i1 %16, label %17, label %24

17:                                               ; preds = %2
  %18 = getelementptr inbounds %class.PLAB, ptr %7, i32 0, i32 3
  %19 = load ptr, ptr %18, align 8
  %20 = load i64, ptr %5, align 8
  %21 = getelementptr inbounds ptr, ptr %19, i64 %20
  %22 = getelementptr inbounds %class.PLAB, ptr %7, i32 0, i32 3
  store ptr %21, ptr %22, align 8
  %23 = load ptr, ptr %6, align 8
  store ptr %23, ptr %3, align 8
  br label %25

24:                                               ; preds = %2
  store ptr null, ptr %3, align 8
  br label %25

25:                                               ; preds = %24, %17
  %26 = load ptr, ptr %3, align 8
  ret ptr %26
}

; Function Attrs: mustprogress nounwind uwtable
define linkonce_odr hidden void @_ZN4PLAB7set_bufEPP12HeapWordImplm(ptr noundef nonnull align 8 dereferenceable(128) %0, ptr noundef %1, i64 noundef %2) #1 comdat align 2 {
  %4 = alloca ptr, align 8
  %5 = alloca ptr, align 8
  %6 = alloca i64, align 8
  store ptr %0, ptr %4, align 8
  store ptr %1, ptr %5, align 8
  store i64 %2, ptr %6, align 8
  %7 = load ptr, ptr %4, align 8
  %8 = load i64, ptr %6, align 8
  %9 = getelementptr inbounds %class.PLAB, ptr %7, i32 0, i32 1
  store i64 %8, ptr %9, align 8
  %10 = load ptr, ptr %5, align 8
  %11 = getelementptr inbounds %class.PLAB, ptr %7, i32 0, i32 2
  store ptr %10, ptr %11, align 8
  %12 = getelementptr inbounds %class.PLAB, ptr %7, i32 0, i32 2
  %13 = load ptr, ptr %12, align 8
  %14 = getelementptr inbounds %class.PLAB, ptr %7, i32 0, i32 3
  store ptr %13, ptr %14, align 8
  %15 = getelementptr inbounds %class.PLAB, ptr %7, i32 0, i32 2
  %16 = load ptr, ptr %15, align 8
  %17 = call noundef i64 @_ZN4PLAB7word_szEv(ptr noundef nonnull align 8 dereferenceable(128) %7)
  %18 = getelementptr inbounds ptr, ptr %16, i64 %17
  %19 = getelementptr inbounds %class.PLAB, ptr %7, i32 0, i32 5
  store ptr %18, ptr %19, align 8
  %20 = getelementptr inbounds %class.PLAB, ptr %7, i32 0, i32 5
  %21 = load ptr, ptr %20, align 8
  %22 = call noundef i64 @_ZN13CollectedHeap21lab_alignment_reserveEv()
  %23 = sub i64 0, %22
  %24 = getelementptr inbounds ptr, ptr %21, i64 %23
  %25 = getelementptr inbounds %class.PLAB, ptr %7, i32 0, i32 4
  store ptr %24, ptr %25, align 8
  %26 = call noundef i64 @_ZN4PLAB7word_szEv(ptr noundef nonnull align 8 dereferenceable(128) %7)
  %27 = getelementptr inbounds %class.PLAB, ptr %7, i32 0, i32 6
  %28 = load i64, ptr %27, align 8
  %29 = add i64 %28, %26
  store i64 %29, ptr %27, align 8
  ret void
}

; Function Attrs: mustprogress nounwind uwtable
define linkonce_odr hidden void @_ZN4Copy13zero_to_wordsEPP12HeapWordImplm(ptr noundef %0, i64 noundef %1) #1 comdat align 2 {
  %3 = alloca ptr, align 8
  %4 = alloca i64, align 8
  store ptr %0, ptr %3, align 8
  store i64 %1, ptr %4, align 8
  %5 = load ptr, ptr %3, align 8
  call void @_ZN4Copy16assert_params_okEPP12HeapWordImpll(ptr noundef %5, i64 noundef 8)
  %6 = load ptr, ptr %3, align 8
  %7 = load i64, ptr %4, align 8
  call void @_ZN4Copy16pd_zero_to_wordsEPP12HeapWordImplm(ptr noundef %6, i64 noundef %7)
  ret void
}

; Function Attrs: mustprogress nounwind uwtable
define hidden noundef ptr @_ZN14ShenandoahHeap18allocate_new_gclabEmmPm(ptr noundef nonnull align 8 dereferenceable(2657) %0, i64 noundef %1, i64 noundef %2, ptr noundef %3) #1 align 2 {
  %5 = alloca ptr, align 8
  %6 = alloca i64, align 8
  %7 = alloca i64, align 8
  %8 = alloca ptr, align 8
  %9 = alloca %class.ShenandoahAllocRequest, align 8
  %10 = alloca ptr, align 8
  store ptr %0, ptr %5, align 8
  store i64 %1, ptr %6, align 8
  store i64 %2, ptr %7, align 8
  store ptr %3, ptr %8, align 8
  %11 = load ptr, ptr %5, align 8
  %12 = load i64, ptr %6, align 8
  %13 = load i64, ptr %7, align 8
  call void @_ZN22ShenandoahAllocRequest9for_gclabEmm(ptr dead_on_unwind writable sret(%class.ShenandoahAllocRequest) align 8 %9, i64 noundef %12, i64 noundef %13)
  %14 = call noundef ptr @_ZN14ShenandoahHeap15allocate_memoryER22ShenandoahAllocRequest(ptr noundef nonnull align 8 dereferenceable(2657) %11, ptr noundef nonnull align 8 dereferenceable(28) %9)
  store ptr %14, ptr %10, align 8
  %15 = load ptr, ptr %10, align 8
  %16 = icmp ne ptr %15, null
  br i1 %16, label %17, label %20

17:                                               ; preds = %4
  %18 = call noundef i64 @_ZN22ShenandoahAllocRequest11actual_sizeEv(ptr noundef nonnull align 8 dereferenceable(28) %9)
  %19 = load ptr, ptr %8, align 8
  store i64 %18, ptr %19, align 8
  br label %22

20:                                               ; preds = %4
  %21 = load ptr, ptr %8, align 8
  store i64 0, ptr %21, align 8
  br label %22

22:                                               ; preds = %20, %17
  %23 = load ptr, ptr %10, align 8
  ret ptr %23
}

; Function Attrs: mustprogress nounwind uwtable
define linkonce_odr hidden noundef ptr @_ZN25ShenandoahThreadLocalData5gclabEP6Thread(ptr noundef %0) #1 comdat align 2 {
  %2 = alloca ptr, align 8
  store ptr %0, ptr %2, align 8
  %3 = load ptr, ptr %2, align 8
  %4 = call noundef ptr @_ZN25ShenandoahThreadLocalData4dataEP6Thread(ptr noundef %3)
  %5 = getelementptr inbounds %class.ShenandoahThreadLocalData, ptr %4, i32 0, i32 5
  %6 = load ptr, ptr %5, align 8
  ret ptr %6
}

; Function Attrs: mustprogress nounwind uwtable
define linkonce_odr hidden void @_ZN25ShenandoahThreadLocalData14set_gclab_sizeEP6Threadm(ptr noundef %0, i64 noundef %1) #1 comdat align 2 {
  %3 = alloca ptr, align 8
  %4 = alloca i64, align 8
  store ptr %0, ptr %3, align 8
  store i64 %1, ptr %4, align 8
  %5 = load i64, ptr %4, align 8
  %6 = load ptr, ptr %3, align 8
  %7 = call noundef ptr @_ZN25ShenandoahThreadLocalData4dataEP6Thread(ptr noundef %6)
  %8 = getelementptr inbounds %class.ShenandoahThreadLocalData, ptr %7, i32 0, i32 6
  store i64 %5, ptr %8, align 8
  ret void
}

; Function Attrs: mustprogress nounwind uwtable
define linkonce_odr hidden noundef i64 @_Z4MIN2ImET_S0_S0_(i64 noundef %0, i64 noundef %1) #1 comdat {
  %3 = alloca i64, align 8
  %4 = alloca i64, align 8
  store i64 %0, ptr %3, align 8
  store i64 %1, ptr %4, align 8
  %5 = load i64, ptr %3, align 8
  %6 = load i64, ptr %4, align 8
  %7 = icmp ult i64 %5, %6
  br i1 %7, label %8, label %10

8:                                                ; preds = %2
  %9 = load i64, ptr %3, align 8
  br label %12

10:                                               ; preds = %2
  %11 = load i64, ptr %4, align 8
  br label %12

12:                                               ; preds = %10, %8
  %13 = phi i64 [ %9, %8 ], [ %11, %10 ]
  ret i64 %13
}

; Function Attrs: mustprogress nounwind uwtable
define linkonce_odr hidden noundef i64 @_ZN25ShenandoahThreadLocalData10gclab_sizeEP6Thread(ptr noundef %0) #1 comdat align 2 {
  %2 = alloca ptr, align 8
  store ptr %0, ptr %2, align 8
  %3 = load ptr, ptr %2, align 8
  %4 = call noundef ptr @_ZN25ShenandoahThreadLocalData4dataEP6Thread(ptr noundef %3)
  %5 = getelementptr inbounds %class.ShenandoahThreadLocalData, ptr %4, i32 0, i32 6
  %6 = load i64, ptr %5, align 8
  ret i64 %6
}

; Function Attrs: mustprogress nounwind uwtable
define linkonce_odr hidden noundef i64 @_Z4MAX2ImET_S0_S0_(i64 noundef %0, i64 noundef %1) #1 comdat {
  %3 = alloca i64, align 8
  %4 = alloca i64, align 8
  store i64 %0, ptr %3, align 8
  store i64 %1, ptr %4, align 8
  %5 = load i64, ptr %3, align 8
  %6 = load i64, ptr %4, align 8
  %7 = icmp ugt i64 %5, %6
  br i1 %7, label %8, label %10

8:                                                ; preds = %2
  %9 = load i64, ptr %3, align 8
  br label %12

10:                                               ; preds = %2
  %11 = load i64, ptr %4, align 8
  br label %12

12:                                               ; preds = %10, %8
  %13 = phi i64 [ %9, %8 ], [ %11, %10 ]
  ret i64 %13
}

; Function Attrs: mustprogress nounwind uwtable
define hidden noundef ptr @_ZN14ShenandoahHeap24allocate_from_gclab_slowEP6Threadm(ptr noundef nonnull align 8 dereferenceable(2657) %0, ptr noundef %1, i64 noundef %2) #1 align 2 {
  %4 = alloca ptr, align 8
  %5 = alloca ptr, align 8
  %6 = alloca ptr, align 8
  %7 = alloca i64, align 8
  %8 = alloca i64, align 8
  %9 = alloca i64, align 8
  %10 = alloca ptr, align 8
  %11 = alloca i64, align 8
  %12 = alloca ptr, align 8
  store ptr %0, ptr %5, align 8
  store ptr %1, ptr %6, align 8
  store i64 %2, ptr %7, align 8
  %13 = load ptr, ptr %5, align 8
  %14 = load i64, ptr %7, align 8
  %15 = call noundef i64 @_ZN4PLAB8min_sizeEv()
  %16 = call noundef i64 @_Z4MAX2ImET_S0_S0_(i64 noundef %14, i64 noundef %15)
  store i64 %16, ptr %8, align 8
  %17 = load ptr, ptr %6, align 8
  %18 = call noundef i64 @_ZN25ShenandoahThreadLocalData10gclab_sizeEP6Thread(ptr noundef %17)
  %19 = mul i64 %18, 2
  store i64 %19, ptr %9, align 8
  %20 = load i64, ptr %9, align 8
  %21 = call noundef i64 @_ZN4PLAB8max_sizeEv()
  %22 = call noundef i64 @_Z4MIN2ImET_S0_S0_(i64 noundef %20, i64 noundef %21)
  store i64 %22, ptr %9, align 8
  %23 = load i64, ptr %9, align 8
  %24 = call noundef i64 @_ZN4PLAB8min_sizeEv()
  %25 = call noundef i64 @_Z4MAX2ImET_S0_S0_(i64 noundef %23, i64 noundef %24)
  store i64 %25, ptr %9, align 8
  %26 = load ptr, ptr %6, align 8
  %27 = load i64, ptr %9, align 8
  call void @_ZN25ShenandoahThreadLocalData14set_gclab_sizeEP6Threadm(ptr noundef %26, i64 noundef %27)
  %28 = load i64, ptr %9, align 8
  %29 = load i64, ptr %7, align 8
  %30 = icmp ult i64 %28, %29
  br i1 %30, label %31, label %32

31:                                               ; preds = %3
  store ptr null, ptr %4, align 8
  br label %56

32:                                               ; preds = %3
  %33 = load ptr, ptr %6, align 8
  %34 = call noundef ptr @_ZN25ShenandoahThreadLocalData5gclabEP6Thread(ptr noundef %33)
  store ptr %34, ptr %10, align 8
  %35 = load ptr, ptr %10, align 8
  call void @_ZN4PLAB6retireEv(ptr noundef nonnull align 8 dereferenceable(128) %35)
  store i64 0, ptr %11, align 8
  %36 = load i64, ptr %8, align 8
  %37 = load i64, ptr %9, align 8
  %38 = call noundef ptr @_ZN14ShenandoahHeap18allocate_new_gclabEmmPm(ptr noundef nonnull align 8 dereferenceable(2657) %13, i64 noundef %36, i64 noundef %37, ptr noundef %11)
  store ptr %38, ptr %12, align 8
  %39 = load ptr, ptr %12, align 8
  %40 = icmp eq ptr %39, null
  br i1 %40, label %41, label %42

41:                                               ; preds = %32
  store ptr null, ptr %4, align 8
  br label %56

42:                                               ; preds = %32
  %43 = load i8, ptr @ZeroTLAB, align 1
  %44 = trunc i8 %43 to i1
  br i1 %44, label %45, label %48

45:                                               ; preds = %42
  %46 = load ptr, ptr %12, align 8
  %47 = load i64, ptr %11, align 8
  call void @_ZN4Copy13zero_to_wordsEPP12HeapWordImplm(ptr noundef %46, i64 noundef %47)
  br label %49

48:                                               ; preds = %42
  br label %49

49:                                               ; preds = %48, %45
  %50 = load ptr, ptr %10, align 8
  %51 = load ptr, ptr %12, align 8
  %52 = load i64, ptr %11, align 8
  call void @_ZN4PLAB7set_bufEPP12HeapWordImplm(ptr noundef nonnull align 8 dereferenceable(128) %50, ptr noundef %51, i64 noundef %52)
  %53 = load ptr, ptr %10, align 8
  %54 = load i64, ptr %7, align 8
  %55 = call noundef ptr @_ZN4PLAB8allocateEm(ptr noundef nonnull align 8 dereferenceable(128) %53, i64 noundef %54)
  store ptr %55, ptr %4, align 8
  br label %56

56:                                               ; preds = %49, %41, %31
  %57 = load ptr, ptr %4, align 8
  ret ptr %57
}