; Function Attrs: mustprogress nounwind uwtable
define hidden noundef ptr @_ZN14ShenandoahHeap24allocate_from_gclab_slowEP6Threadm(ptr noundef nonnull align 8 dereferenceable(2657) %0, ptr nocapture noundef %1, i64 noundef %2) local_unnamed_addr #1 align 2 {
  %4 = alloca %class.ShenandoahAllocRequest, align 8
  %5 = tail call noundef i64 @_ZN4PLAB8min_sizeEv() #26
  %6 = getelementptr inbounds i8, ptr %1, i64 80
  %7 = load i64, ptr %6, align 8
  %8 = shl i64 %7, 1
  %9 = tail call noundef i64 @_ZN4PLAB8max_sizeEv() #26
  %10 = tail call noundef i64 @llvm.umin.i64(i64 %8, i64 %9)
  %11 = tail call noundef i64 @_ZN4PLAB8min_sizeEv() #26
  %12 = tail call noundef i64 @llvm.umax.i64(i64 %10, i64 %11)
  store i64 %12, ptr %6, align 8
  %13 = icmp ult i64 %12, %2
  br i1 %13, label %_ZN4PLAB8allocateEm.exit, label %14

14:                                               ; preds = %3
  %15 = tail call noundef i64 @llvm.umax.i64(i64 %2, i64 %5)
  %16 = getelementptr inbounds i8, ptr %1, i64 72
  %17 = load ptr, ptr %16, align 8
  tail call void @_ZN4PLAB6retireEv(ptr noundef nonnull align 8 dereferenceable(128) %17) #26
  call void @llvm.lifetime.start.p0(i64 32, ptr nonnull %4)
  store i64 %15, ptr %4, align 8, !alias.scope !21
  %18 = getelementptr inbounds i8, ptr %4, i64 8
  store i64 %12, ptr %18, align 8, !alias.scope !21
  %19 = getelementptr inbounds i8, ptr %4, i64 16
  store i64 0, ptr %19, align 8, !alias.scope !21
  %20 = getelementptr inbounds i8, ptr %4, i64 24
  store i32 3, ptr %20, align 8, !alias.scope !21
  %21 = call noundef ptr @_ZN14ShenandoahHeap15allocate_memoryER22ShenandoahAllocRequest(ptr noundef nonnull align 8 dereferenceable(2657) %0, ptr noundef nonnull align 8 dereferenceable(28) %4)
  %.not.i = icmp eq ptr %21, null
  %22 = load i64, ptr %19, align 8
  call void @llvm.lifetime.end.p0(i64 32, ptr nonnull %4)
  br i1 %.not.i, label %_ZN4PLAB8allocateEm.exit, label %23

23:                                               ; preds = %14
  %24 = load i8, ptr @ZeroTLAB, align 1
  %25 = trunc i8 %24 to i1
  %.not6.i.i.i = icmp ne i64 %22, 0
  %or.cond.not = select i1 %25, i1 %.not6.i.i.i, i1 false
  br i1 %or.cond.not, label %.lr.ph.i.preheader.i.i, label %_ZN4Copy13zero_to_wordsEPP12HeapWordImplm.exit

.lr.ph.i.preheader.i.i:                           ; preds = %23
  %26 = shl nuw i64 %22, 3
  call void @llvm.memset.p0.i64(ptr nonnull align 8 %21, i8 0, i64 %26, i1 false)
  br label %_ZN4Copy13zero_to_wordsEPP12HeapWordImplm.exit

_ZN4Copy13zero_to_wordsEPP12HeapWordImplm.exit:   ; preds = %.lr.ph.i.preheader.i.i, %23
  %27 = getelementptr inbounds i8, ptr %17, i64 32
  store i64 %22, ptr %27, align 8
  %28 = getelementptr inbounds i8, ptr %17, i64 40
  store ptr %21, ptr %28, align 8
  %29 = getelementptr inbounds i8, ptr %17, i64 48
  store ptr %21, ptr %29, align 8
  %30 = getelementptr inbounds ptr, ptr %21, i64 %22
  %31 = getelementptr inbounds i8, ptr %17, i64 64
  store ptr %30, ptr %31, align 8
  %32 = load i64, ptr @_ZN13CollectedHeap22_lab_alignment_reserveE, align 8
  %33 = sub i64 0, %32
  %34 = getelementptr inbounds ptr, ptr %30, i64 %33
  %35 = getelementptr inbounds i8, ptr %17, i64 56
  store ptr %34, ptr %35, align 8
  %36 = getelementptr inbounds i8, ptr %17, i64 72
  %37 = load i64, ptr %36, align 8
  %38 = add i64 %37, %22
  store i64 %38, ptr %36, align 8
  %39 = ptrtoint ptr %34 to i64
  %40 = ptrtoint ptr %21 to i64
  %41 = sub i64 %39, %40
  %42 = lshr i64 %41, 3
  %.not.i22 = icmp ult i64 %42, %2
  br i1 %.not.i22, label %_ZN4PLAB8allocateEm.exit, label %43

43:                                               ; preds = %_ZN4Copy13zero_to_wordsEPP12HeapWordImplm.exit
  %44 = getelementptr inbounds ptr, ptr %21, i64 %2
  store ptr %44, ptr %29, align 8
  br label %_ZN4PLAB8allocateEm.exit

_ZN4PLAB8allocateEm.exit:                         ; preds = %43, %_ZN4Copy13zero_to_wordsEPP12HeapWordImplm.exit, %14, %3
  %.0 = phi ptr [ null, %3 ], [ null, %14 ], [ %21, %43 ], [ null, %_ZN4Copy13zero_to_wordsEPP12HeapWordImplm.exit ]
  ret ptr %.0
}